; Function Attrs: nounwind uwtable
define internal i32 @_handle_kvs_put(i32 noundef %0, i32 %1, ptr noundef %2) #0 {
  %4 = alloca ptr, align 8
  %5 = alloca ptr, align 8
  call void @llvm.lifetime.start.p0(i64 8, ptr nonnull %4) #7
  store ptr null, ptr %4, align 8
  call void @llvm.lifetime.start.p0(i64 8, ptr nonnull %5) #7
  store ptr null, ptr %5, align 8
  %6 = tail call i32 @slurm_get_log_level() #7
  %7 = icmp sgt i32 %6, 6
  br i1 %7, label %8, label %9

8:                                                ; preds = %3
  tail call void (i32, ptr, ...) @slurm_log_var(i32 noundef 7, ptr noundef nonnull @.str.52, ptr noundef nonnull @plugin_type, ptr noundef nonnull @__func__._handle_kvs_put) #7
  br label %9

9:                                                ; preds = %8, %3
  %10 = tail call i32 @client_req_parse_body(ptr noundef %2) #7
  %11 = call zeroext i1 @client_req_get_str(ptr noundef %2, ptr noundef nonnull @.str.53, ptr noundef nonnull %4) #7
  %12 = call zeroext i1 @client_req_get_str(ptr noundef %2, ptr noundef nonnull @.str.54, ptr noundef nonnull %5) #7
  %13 = load ptr, ptr %4, align 8
  %14 = load ptr, ptr %5, align 8
  %15 = call i32 @temp_kvs_add(ptr noundef %13, ptr noundef %14) #7
  call void @slurm_xfree(ptr noundef nonnull %4) #7
  call void @slurm_xfree(ptr noundef nonnull %5) #7
  %16 = call ptr @client_resp_new() #7
  call void (ptr, ptr, ...) @slurm_xstrfmtcat(ptr noundef %16, ptr noundef nonnull @.str.55, i32 noundef %15) #7
  %17 = call i32 @client_resp_send(ptr noundef %16, i32 noundef %0) #7
  call void @client_resp_free(ptr noundef %16) #7
  %18 = call i32 @slurm_get_log_level() #7
  %19 = icmp sgt i32 %18, 6
  br i1 %19, label %20, label %21

20:                                               ; preds = %9
  call void (i32, ptr, ...) @slurm_log_var(i32 noundef 7, ptr noundef nonnull @.str.56, ptr noundef nonnull @plugin_type, ptr noundef nonnull @__func__._handle_kvs_put) #7
  br label %21

21:                                               ; preds = %20, %9
  call void @llvm.lifetime.end.p0(i64 8, ptr nonnull %5) #7
  call void @llvm.lifetime.end.p0(i64 8, ptr nonnull %4) #7
  ret i32 %17
}